; Function Attrs: mustprogress uwtable
define hidden void @_ZN11ast_pp_util4pushEv(ptr noundef nonnull align 8 dereferenceable(1232) %this) local_unnamed_addr #3 align 2 {
entry:
  %coll = getelementptr inbounds i8, ptr %this, i64 768
  tail call void @_ZN14decl_collector4pushEv(ptr noundef nonnull align 8 dereferenceable(464) %coll)
  %m_rec_decls = getelementptr inbounds i8, ptr %this, i64 672
  %m_stack.i = getelementptr inbounds i8, ptr %this, i64 680
  %0 = load ptr, ptr %m_stack.i, align 8
  %cmp.i.i = icmp eq ptr %0, null
  br i1 %cmp.i.i, label %if.then.i.i, label %lor.lhs.false.i.i

lor.lhs.false.i.i:                                ; preds = %entry
  %arrayidx.i.i = getelementptr inbounds i8, ptr %0, i64 -4
  %1 = load i32, ptr %arrayidx.i.i, align 4
  %arrayidx4.i.i = getelementptr inbounds i8, ptr %0, i64 -8
  %2 = load i32, ptr %arrayidx4.i.i, align 4
  %cmp5.i.i = icmp eq i32 %1, %2
  br i1 %cmp5.i.i, label %if.then.i.i, label %_ZN13stacked_valueIjE4pushEv.exit

if.then.i.i:                                      ; preds = %lor.lhs.false.i.i, %entry
  tail call void @_ZN6vectorIjLb1EjE13expand_vectorEv(ptr noundef nonnull align 8 dereferenceable(8) %m_stack.i)
  %.pre.i.i = load ptr, ptr %m_stack.i, align 8
  %arrayidx8.phi.trans.insert.i.i = getelementptr inbounds i8, ptr %.pre.i.i, i64 -4
  %.pre1.i.i = load i32, ptr %arrayidx8.phi.trans.insert.i.i, align 4
  br label %_ZN13stacked_valueIjE4pushEv.exit

_ZN13stacked_valueIjE4pushEv.exit:                ; preds = %lor.lhs.false.i.i, %if.then.i.i
  %3 = phi i32 [ %.pre1.i.i, %if.then.i.i ], [ %1, %lor.lhs.false.i.i ]
  %4 = phi ptr [ %.pre.i.i, %if.then.i.i ], [ %0, %lor.lhs.false.i.i ]
  %idx.ext.i.i = zext i32 %3 to i64
  %add.ptr.i.i = getelementptr inbounds i32, ptr %4, i64 %idx.ext.i.i
  %5 = load i32, ptr %m_rec_decls, align 8
  store i32 %5, ptr %add.ptr.i.i, align 4
  %6 = load ptr, ptr %m_stack.i, align 8
  %arrayidx10.i.i = getelementptr inbounds i8, ptr %6, i64 -4
  %7 = load i32, ptr %arrayidx10.i.i, align 4
  %inc.i.i = add i32 %7, 1
  store i32 %inc.i.i, ptr %arrayidx10.i.i, align 4
  %m_decls = getelementptr inbounds i8, ptr %this, i64 688
  %m_stack.i1 = getelementptr inbounds i8, ptr %this, i64 696
  %8 = load ptr, ptr %m_stack.i1, align 8
  %cmp.i.i2 = icmp eq ptr %8, null
  br i1 %cmp.i.i2, label %if.then.i.i11, label %lor.lhs.false.i.i3

lor.lhs.false.i.i3:                               ; preds = %_ZN13stacked_valueIjE4pushEv.exit
  %arrayidx.i.i4 = getelementptr inbounds i8, ptr %8, i64 -4
  %9 = load i32, ptr %arrayidx.i.i4, align 4
  %arrayidx4.i.i5 = getelementptr inbounds i8, ptr %8, i64 -8
  %10 = load i32, ptr %arrayidx4.i.i5, align 4
  %cmp5.i.i6 = icmp eq i32 %9, %10
  br i1 %cmp5.i.i6, label %if.then.i.i11, label %_ZN13stacked_valueIjE4pushEv.exit15

if.then.i.i11:                                    ; preds = %lor.lhs.false.i.i3, %_ZN13stacked_valueIjE4pushEv.exit
  tail call void @_ZN6vectorIjLb1EjE13expand_vectorEv(ptr noundef nonnull align 8 dereferenceable(8) %m_stack.i1)
  %.pre.i.i12 = load ptr, ptr %m_stack.i1, align 8
  %arrayidx8.phi.trans.insert.i.i13 = getelementptr inbounds i8, ptr %.pre.i.i12, i64 -4
  %.pre1.i.i14 = load i32, ptr %arrayidx8.phi.trans.insert.i.i13, align 4
  br label %_ZN13stacked_valueIjE4pushEv.exit15

_ZN13stacked_valueIjE4pushEv.exit15:              ; preds = %lor.lhs.false.i.i3, %if.then.i.i11
  %11 = phi i32 [ %.pre1.i.i14, %if.then.i.i11 ], [ %9, %lor.lhs.false.i.i3 ]
  %12 = phi ptr [ %.pre.i.i12, %if.then.i.i11 ], [ %8, %lor.lhs.false.i.i3 ]
  %idx.ext.i.i7 = zext i32 %11 to i64
  %add.ptr.i.i8 = getelementptr inbounds i32, ptr %12, i64 %idx.ext.i.i7
  %13 = load i32, ptr %m_decls, align 8
  store i32 %13, ptr %add.ptr.i.i8, align 4
  %14 = load ptr, ptr %m_stack.i1, align 8
  %arrayidx10.i.i9 = getelementptr inbounds i8, ptr %14, i64 -4
  %15 = load i32, ptr %arrayidx10.i.i9, align 4
  %inc.i.i10 = add i32 %15, 1
  store i32 %inc.i.i10, ptr %arrayidx10.i.i9, align 4
  %m_sorts = getelementptr inbounds i8, ptr %this, i64 704
  %m_stack.i16 = getelementptr inbounds i8, ptr %this, i64 712
  %16 = load ptr, ptr %m_stack.i16, align 8
  %cmp.i.i17 = icmp eq ptr %16, null
  br i1 %cmp.i.i17, label %if.then.i.i26, label %lor.lhs.false.i.i18

lor.lhs.false.i.i18:                              ; preds = %_ZN13stacked_valueIjE4pushEv.exit15
  %arrayidx.i.i19 = getelementptr inbounds i8, ptr %16, i64 -4
  %17 = load i32, ptr %arrayidx.i.i19, align 4
  %arrayidx4.i.i20 = getelementptr inbounds i8, ptr %16, i64 -8
  %18 = load i32, ptr %arrayidx4.i.i20, align 4
  %cmp5.i.i21 = icmp eq i32 %17, %18
  br i1 %cmp5.i.i21, label %if.then.i.i26, label %_ZN13stacked_valueIjE4pushEv.exit30

if.then.i.i26:                                    ; preds = %lor.lhs.false.i.i18, %_ZN13stacked_valueIjE4pushEv.exit15
  tail call void @_ZN6vectorIjLb1EjE13expand_vectorEv(ptr noundef nonnull align 8 dereferenceable(8) %m_stack.i16)
  %.pre.i.i27 = load ptr, ptr %m_stack.i16, align 8
  %arrayidx8.phi.trans.insert.i.i28 = getelementptr inbounds i8, ptr %.pre.i.i27, i64 -4
  %.pre1.i.i29 = load i32, ptr %arrayidx8.phi.trans.insert.i.i28, align 4
  br label %_ZN13stacked_valueIjE4pushEv.exit30

_ZN13stacked_valueIjE4pushEv.exit30:              ; preds = %lor.lhs.false.i.i18, %if.then.i.i26
  %19 = phi i32 [ %.pre1.i.i29, %if.then.i.i26 ], [ %17, %lor.lhs.false.i.i18 ]
  %20 = phi ptr [ %.pre.i.i27, %if.then.i.i26 ], [ %16, %lor.lhs.false.i.i18 ]
  %idx.ext.i.i22 = zext i32 %19 to i64
  %add.ptr.i.i23 = getelementptr inbounds i32, ptr %20, i64 %idx.ext.i.i22
  %21 = load i32, ptr %m_sorts, align 8
  store i32 %21, ptr %add.ptr.i.i23, align 4
  %22 = load ptr, ptr %m_stack.i16, align 8
  %arrayidx10.i.i24 = getelementptr inbounds i8, ptr %22, i64 -4
  %23 = load i32, ptr %arrayidx10.i.i24, align 4
  %inc.i.i25 = add i32 %23, 1
  store i32 %inc.i.i25, ptr %arrayidx10.i.i24, align 4
  %m_defined_lim = getelementptr inbounds i8, ptr %this, i64 760
  %m_nodes.i = getelementptr inbounds i8, ptr %this, i64 752
  %24 = load ptr, ptr %m_nodes.i, align 8
  %cmp.i.i31 = icmp eq ptr %24, null
  br i1 %cmp.i.i31, label %_ZNK15ref_vector_coreI4expr19ref_manager_wrapperIS0_11ast_managerEE4sizeEv.exit, label %if.end.i.i

if.end.i.i:                                       ; preds = %_ZN13stacked_valueIjE4pushEv.exit30
  %arrayidx.i.i32 = getelementptr inbounds i8, ptr %24, i64 -4
  %25 = load i32, ptr %arrayidx.i.i32, align 4
  br label %_ZNK15ref_vector_coreI4expr19ref_manager_wrapperIS0_11ast_managerEE4sizeEv.exit

_ZNK15ref_vector_coreI4expr19ref_manager_wrapperIS0_11ast_managerEE4sizeEv.exit: ; preds = %_ZN13stacked_valueIjE4pushEv.exit30, %if.end.i.i
  %retval.0.i.i = phi i32 [ %25, %if.end.i.i ], [ 0, %_ZN13stacked_valueIjE4pushEv.exit30 ]
  %26 = load ptr, ptr %m_defined_lim, align 8
  %cmp.i = icmp eq ptr %26, null
  br i1 %cmp.i, label %if.then.i, label %lor.lhs.false.i

lor.lhs.false.i:                                  ; preds = %_ZNK15ref_vector_coreI4expr19ref_manager_wrapperIS0_11ast_managerEE4sizeEv.exit
  %arrayidx.i = getelementptr inbounds i8, ptr %26, i64 -4
  %27 = load i32, ptr %arrayidx.i, align 4
  %arrayidx4.i = getelementptr inbounds i8, ptr %26, i64 -8
  %28 = load i32, ptr %arrayidx4.i, align 4
  %cmp5.i = icmp eq i32 %27, %28
  br i1 %cmp5.i, label %if.then.i, label %_ZN6vectorIjLb0EjE9push_backEOj.exit

if.then.i:                                        ; preds = %lor.lhs.false.i, %_ZNK15ref_vector_coreI4expr19ref_manager_wrapperIS0_11ast_managerEE4sizeEv.exit
  tail call void @_ZN6vectorIjLb0EjE13expand_vectorEv(ptr noundef nonnull align 8 dereferenceable(8) %m_defined_lim)
  %.pre.i = load ptr, ptr %m_defined_lim, align 8
  %arrayidx8.phi.trans.insert.i = getelementptr inbounds i8, ptr %.pre.i, i64 -4
  %.pre1.i = load i32, ptr %arrayidx8.phi.trans.insert.i, align 4
  br label %_ZN6vectorIjLb0EjE9push_backEOj.exit

_ZN6vectorIjLb0EjE9push_backEOj.exit:             ; preds = %lor.lhs.false.i, %if.then.i
  %29 = phi i32 [ %.pre1.i, %if.then.i ], [ %27, %lor.lhs.false.i ]
  %30 = phi ptr [ %.pre.i, %if.then.i ], [ %26, %lor.lhs.false.i ]
  %idx.ext.i = zext i32 %29 to i64
  %add.ptr.i = getelementptr inbounds i32, ptr %30, i64 %idx.ext.i
  store i32 %retval.0.i.i, ptr %add.ptr.i, align 4
  %31 = load ptr, ptr %m_defined_lim, align 8
  %arrayidx10.i = getelementptr inbounds i8, ptr %31, i64 -4
  %32 = load i32, ptr %arrayidx10.i, align 4
  %inc.i = add i32 %32, 1
  store i32 %inc.i, ptr %arrayidx10.i, align 4
  ret void
}